target datalayout = "e-m:e-p270:32:32-p271:32:32-p272:64:64-i64:64-i128:128-f80:128-n8:16:32:64-S128"
target triple = "x86_64-pc-linux-gnu"

%struct.SRP_VBASE_st = type { ptr, ptr, ptr, ptr, ptr }

@.str = private unnamed_addr constant [32 x i8] c"../openssl/crypto/srp/srp_vfy.c\00", align 1

; Function Attrs: inlinehint nounwind uwtable
define internal ptr @ossl_check_SRP_gN_cache_sk_type(ptr noundef %0) #3 {
  %2 = alloca ptr, align 8
  store ptr %0, ptr %2, align 8, !tbaa !30
  %3 = load ptr, ptr %2, align 8, !tbaa !30
  ret ptr %3
}

; Function Attrs: inlinehint nounwind uwtable
define internal ptr @ossl_check_SRP_user_pwd_sk_type(ptr noundef %0) #3 {
  %2 = alloca ptr, align 8
  store ptr %0, ptr %2, align 8, !tbaa !29
  %3 = load ptr, ptr %2, align 8, !tbaa !29
  ret ptr %3
}

; Function Attrs: nounwind uwtable
define ptr @SRP_VBASE_new(ptr noundef %0) #0 {
  %2 = alloca ptr, align 8
  %3 = alloca ptr, align 8
  %4 = alloca ptr, align 8
  %5 = alloca i32, align 4
  store ptr %0, ptr %3, align 8, !tbaa !18
  call void @llvm.lifetime.start.p0(i64 8, ptr %4) #7
  %6 = call noalias ptr @CRYPTO_malloc(i64 noundef 40, ptr noundef @.str, i32 noundef 280)
  store ptr %6, ptr %4, align 8, !tbaa !19
  %7 = load ptr, ptr %4, align 8, !tbaa !19
  %8 = icmp eq ptr %7, null
  br i1 %8, label %9, label %10

9:                                                ; preds = %1
  store ptr null, ptr %2, align 8
  store i32 1, ptr %5, align 4
  br label %53

10:                                               ; preds = %1
  %11 = call ptr @OPENSSL_sk_new_null()
  %12 = load ptr, ptr %4, align 8, !tbaa !19
  %13 = getelementptr inbounds nuw %struct.SRP_VBASE_st, ptr %12, i32 0, i32 0
  store ptr %11, ptr %13, align 8, !tbaa !21
  %14 = icmp eq ptr %11, null
  br i1 %14, label %20, label %15

15:                                               ; preds = %10
  %16 = call ptr @OPENSSL_sk_new_null()
  %17 = load ptr, ptr %4, align 8, !tbaa !19
  %18 = getelementptr inbounds nuw %struct.SRP_VBASE_st, ptr %17, i32 0, i32 1
  store ptr %16, ptr %18, align 8, !tbaa !25
  %19 = icmp eq ptr %16, null
  br i1 %19, label %20, label %26

20:                                               ; preds = %15, %10
  %21 = load ptr, ptr %4, align 8, !tbaa !19
  %22 = getelementptr inbounds nuw %struct.SRP_VBASE_st, ptr %21, i32 0, i32 0
  %23 = load ptr, ptr %22, align 8, !tbaa !21
  %24 = call ptr @ossl_check_SRP_user_pwd_sk_type(ptr noundef %23)
  call void @OPENSSL_sk_free(ptr noundef %24)
  %25 = load ptr, ptr %4, align 8, !tbaa !19
  call void @CRYPTO_free(ptr noundef %25, ptr noundef @.str, i32 noundef 287)
  store ptr null, ptr %2, align 8
  store i32 1, ptr %5, align 4
  br label %53

26:                                               ; preds = %15
  %27 = load ptr, ptr %4, align 8, !tbaa !19
  %28 = getelementptr inbounds nuw %struct.SRP_VBASE_st, ptr %27, i32 0, i32 3
  store ptr null, ptr %28, align 8, !tbaa !26
  %29 = load ptr, ptr %4, align 8, !tbaa !19
  %30 = getelementptr inbounds nuw %struct.SRP_VBASE_st, ptr %29, i32 0, i32 4
  store ptr null, ptr %30, align 8, !tbaa !27
  %31 = load ptr, ptr %4, align 8, !tbaa !19
  %32 = getelementptr inbounds nuw %struct.SRP_VBASE_st, ptr %31, i32 0, i32 2
  store ptr null, ptr %32, align 8, !tbaa !28
  %33 = load ptr, ptr %3, align 8, !tbaa !18
  %34 = icmp ne ptr %33, null
  br i1 %34, label %35, label %51

35:                                               ; preds = %26
  %36 = load ptr, ptr %3, align 8, !tbaa !18
  %37 = call noalias ptr @CRYPTO_strdup(ptr noundef %36, ptr noundef @.str, i32 noundef 293)
  %38 = load ptr, ptr %4, align 8, !tbaa !19
  %39 = getelementptr inbounds nuw %struct.SRP_VBASE_st, ptr %38, i32 0, i32 2
  store ptr %37, ptr %39, align 8, !tbaa !28
  %40 = icmp eq ptr %37, null
  br i1 %40, label %41, label %51

41:                                               ; preds = %35
  %42 = load ptr, ptr %4, align 8, !tbaa !19
  %43 = getelementptr inbounds nuw %struct.SRP_VBASE_st, ptr %42, i32 0, i32 0
  %44 = load ptr, ptr %43, align 8, !tbaa !21
  %45 = call ptr @ossl_check_SRP_user_pwd_sk_type(ptr noundef %44)
  call void @OPENSSL_sk_free(ptr noundef %45)
  %46 = load ptr, ptr %4, align 8, !tbaa !19
  %47 = getelementptr inbounds nuw %struct.SRP_VBASE_st, ptr %46, i32 0, i32 1
  %48 = load ptr, ptr %47, align 8, !tbaa !25
  %49 = call ptr @ossl_check_SRP_gN_cache_sk_type(ptr noundef %48)
  call void @OPENSSL_sk_free(ptr noundef %49)
  %50 = load ptr, ptr %4, align 8, !tbaa !19
  call void @CRYPTO_free(ptr noundef %50, ptr noundef @.str, i32 noundef 296)
  store ptr null, ptr %2, align 8
  store i32 1, ptr %5, align 4
  br label %53

51:                                               ; preds = %35, %26
  %52 = load ptr, ptr %4, align 8, !tbaa !19
  store ptr %52, ptr %2, align 8
  store i32 1, ptr %5, align 4
  br label %53

53:                                               ; preds = %51, %41, %20, %9
  call void @llvm.lifetime.end.p0(i64 8, ptr %4) #7
  %54 = load ptr, ptr %2, align 8
  ret ptr %54
}