; Function Attrs: nounwind uwtable
define ptr @SRP_VBASE_new(ptr noundef %0) local_unnamed_addr #0 {
  %2 = tail call noalias ptr @CRYPTO_malloc(i64 noundef 40, ptr noundef nonnull @.str, i32 noundef 280) #7
  %3 = icmp eq ptr %2, null
  br i1 %3, label %19, label %4

4:                                                ; preds = %1
  %5 = tail call ptr @OPENSSL_sk_new_null() #7
  store ptr %5, ptr %2, align 8, !tbaa !15
  %6 = icmp eq ptr %5, null
  br i1 %6, label %.sink.split, label %7

7:                                                ; preds = %4
  %8 = tail call ptr @OPENSSL_sk_new_null() #7
  %9 = getelementptr inbounds nuw i8, ptr %2, i64 8
  store ptr %8, ptr %9, align 8, !tbaa !19
  %10 = icmp eq ptr %8, null
  br i1 %10, label %._crit_edge, label %11

._crit_edge:                                      ; preds = %7
  %.pre = load ptr, ptr %2, align 8, !tbaa !15
  br label %.sink.split

11:                                               ; preds = %7
  %12 = getelementptr inbounds nuw i8, ptr %2, i64 16
  %.not = icmp eq ptr %0, null
  tail call void @llvm.memset.p0.i64(ptr noundef nonnull align 8 dereferenceable(24) %12, i8 0, i64 24, i1 false)
  br i1 %.not, label %19, label %13

13:                                               ; preds = %11
  %14 = tail call noalias ptr @CRYPTO_strdup(ptr noundef nonnull %0, ptr noundef nonnull @.str, i32 noundef 293) #7
  store ptr %14, ptr %12, align 8, !tbaa !20
  %15 = icmp eq ptr %14, null
  br i1 %15, label %16, label %19

16:                                               ; preds = %13
  %17 = load ptr, ptr %2, align 8, !tbaa !15
  tail call void @OPENSSL_sk_free(ptr noundef %17) #7
  %18 = load ptr, ptr %9, align 8, !tbaa !19
  br label %.sink.split

.sink.split:                                      ; preds = %4, %._crit_edge, %16
  %.sink18 = phi ptr [ %18, %16 ], [ %.pre, %._crit_edge ], [ null, %4 ]
  %.sink = phi i32 [ 296, %16 ], [ 287, %._crit_edge ], [ 287, %4 ]
  tail call void @OPENSSL_sk_free(ptr noundef %.sink18) #7
  tail call void @CRYPTO_free(ptr noundef nonnull %2, ptr noundef nonnull @.str, i32 noundef %.sink) #7
  br label %19

19:                                               ; preds = %.sink.split, %11, %13, %1
  %.0 = phi ptr [ null, %1 ], [ %2, %13 ], [ %2, %11 ], [ null, %.sink.split ]
  ret ptr %.0
}